; Function Attrs: nounwind uwtable
define range(i32 0, -2147483648) i32 @Nwk_ManLevelMax(ptr noundef readonly captures(none) %0) local_unnamed_addr #0 {
  %2 = getelementptr inbounds nuw i8, ptr %0, i64 24
  %3 = load ptr, ptr %2, align 8
  %4 = getelementptr i8, ptr %3, i64 4
  %.val16 = load i32, ptr %4, align 4
  %5 = icmp sgt i32 %.val16, 0
  br i1 %5, label %.lr.ph, label %.critedge

.lr.ph:                                           ; preds = %1, %Nwk_ObjIsPo.exit.thread
  %indvars.iv = phi i64 [ %indvars.iv.next, %Nwk_ObjIsPo.exit.thread ], [ 0, %1 ]
  %6 = phi ptr [ %20, %Nwk_ObjIsPo.exit.thread ], [ %3, %1 ]
  %.018 = phi i32 [ %.1, %Nwk_ObjIsPo.exit.thread ], [ 0, %1 ]
  %7 = getelementptr i8, ptr %6, i64 8
  %.val10 = load ptr, ptr %7, align 8
  %8 = getelementptr inbounds nuw ptr, ptr %.val10, i64 %indvars.iv
  %9 = load ptr, ptr %8, align 8
  %10 = getelementptr i8, ptr %9, i64 32
  %.val.i = load i32, ptr %10, align 8
  %11 = and i32 %.val.i, 7
  %.not.i = icmp eq i32 %11, 2
  br i1 %.not.i, label %12, label %Nwk_ObjIsPo.exit.thread

12:                                               ; preds = %.lr.ph
  %13 = load ptr, ptr %9, align 8
  %14 = getelementptr inbounds nuw i8, ptr %13, i64 72
  %15 = load ptr, ptr %14, align 8
  %16 = icmp eq ptr %15, null
  br i1 %16, label %Nwk_ObjIsPo.exit.thread14, label %Nwk_ObjIsPo.exit

Nwk_ObjIsPo.exit:                                 ; preds = %12
  %17 = lshr i32 %.val.i, 7
  %18 = tail call i32 @Tim_ManBoxForCo(ptr noundef nonnull %15, i32 noundef %17) #9
  %.not = icmp eq i32 %18, -1
  br i1 %.not, label %Nwk_ObjIsPo.exit.thread14, label %Nwk_ObjIsPo.exit.thread

Nwk_ObjIsPo.exit.thread14:                        ; preds = %12, %Nwk_ObjIsPo.exit
  %19 = getelementptr i8, ptr %9, i64 44
  %.val12 = load i32, ptr %19, align 4
  %spec.select = tail call i32 @llvm.smax.i32(i32 %.018, i32 %.val12)
  br label %Nwk_ObjIsPo.exit.thread

Nwk_ObjIsPo.exit.thread:                          ; preds = %Nwk_ObjIsPo.exit.thread14, %.lr.ph, %Nwk_ObjIsPo.exit
  %.1 = phi i32 [ %.018, %Nwk_ObjIsPo.exit ], [ %.018, %.lr.ph ], [ %spec.select, %Nwk_ObjIsPo.exit.thread14 ]
  %indvars.iv.next = add nuw nsw i64 %indvars.iv, 1
  %20 = load ptr, ptr %2, align 8
  %21 = getelementptr i8, ptr %20, i64 4
  %.val = load i32, ptr %21, align 4
  %22 = sext i32 %.val to i64
  %23 = icmp slt i64 %indvars.iv.next, %22
  br i1 %23, label %.lr.ph, label %.critedge, !llvm.loop !16

.critedge:                                        ; preds = %Nwk_ObjIsPo.exit.thread, %1
  %.0.lcssa = phi i32 [ 0, %1 ], [ %.1, %Nwk_ObjIsPo.exit.thread ]
  ret i32 %.0.lcssa
}